; Function Attrs: nounwind uwtable
define internal fastcc void @mi_vfprintf_thread(ptr noundef %0, ptr noundef %1, ptr noundef nonnull %2) unnamed_addr #1 {
  %4 = alloca [512 x i8], align 16
  %5 = alloca [512 x i8], align 16
  %6 = alloca [64 x i8], align 16
  %.not = icmp eq ptr %0, null
  br i1 %.not, label %27, label %7

7:                                                ; preds = %3
  %8 = tail call i64 @_mi_strnlen(ptr noundef nonnull %0, i64 noundef 33) #16
  %9 = icmp ult i64 %8, 33
  br i1 %9, label %10, label %27

10:                                               ; preds = %7
  %11 = tail call zeroext i1 @_mi_is_main_thread() #16
  br i1 %11, label %27, label %12

12:                                               ; preds = %10
  call void @llvm.lifetime.start.p0(i64 64, ptr nonnull %6) #18
  %13 = tail call i64 @_mi_thread_id() #16
  %14 = call i32 (ptr, i64, ptr, ...) @_mi_snprintf(ptr noundef nonnull %6, i64 noundef 64, ptr noundef nonnull @.str.47, ptr noundef nonnull %0, i64 noundef %13) #16
  call void @llvm.lifetime.start.p0(i64 512, ptr nonnull %5) #18
  %15 = icmp eq ptr %1, null
  br i1 %15, label %mi_vfprintf.exit, label %16

16:                                               ; preds = %12
  %17 = call fastcc noundef zeroext i1 @mi_recurse_enter_prim() #17
  br i1 %17, label %18, label %mi_vfprintf.exit

18:                                               ; preds = %16
  %19 = call i32 @_mi_vsnprintf(ptr noundef nonnull %5, i64 noundef 511, ptr noundef nonnull %1, ptr noundef nonnull %2) #16
  call fastcc void @mi_recurse_exit_prim() #17
  %20 = call fastcc noundef zeroext i1 @mi_recurse_enter_prim() #17
  br i1 %20, label %21, label %mi_vfprintf.exit

21:                                               ; preds = %18
  %22 = load atomic i64, ptr @mi_out_arg acquire, align 8
  %23 = inttoptr i64 %22 to ptr
  %24 = load volatile ptr, ptr @mi_out_default, align 8, !tbaa !6
  %25 = icmp eq ptr %24, null
  %26 = select i1 %25, ptr @mi_out_buf, ptr %24
  call void %26(ptr noundef nonnull %6, ptr noundef %23) #16
  call void %26(ptr noundef nonnull %5, ptr noundef %23) #16
  call fastcc void @mi_recurse_exit_prim() #17
  br label %mi_vfprintf.exit

mi_vfprintf.exit:                                 ; preds = %12, %16, %18, %21
  call void @llvm.lifetime.end.p0(i64 512, ptr nonnull %5) #18
  call void @llvm.lifetime.end.p0(i64 64, ptr nonnull %6) #18
  br label %42

27:                                               ; preds = %10, %7, %3
  call void @llvm.lifetime.start.p0(i64 512, ptr nonnull %4) #18
  %28 = icmp eq ptr %1, null
  br i1 %28, label %mi_vfprintf.exit12, label %29

29:                                               ; preds = %27
  %30 = tail call fastcc noundef zeroext i1 @mi_recurse_enter_prim() #17
  br i1 %30, label %31, label %mi_vfprintf.exit12

31:                                               ; preds = %29
  %32 = call i32 @_mi_vsnprintf(ptr noundef nonnull %4, i64 noundef 511, ptr noundef nonnull %1, ptr noundef nonnull %2) #16
  call fastcc void @mi_recurse_exit_prim() #17
  %33 = call fastcc noundef zeroext i1 @mi_recurse_enter_prim() #17
  br i1 %33, label %34, label %mi_vfprintf.exit12

34:                                               ; preds = %31
  %35 = load atomic i64, ptr @mi_out_arg acquire, align 8
  %36 = inttoptr i64 %35 to ptr
  %37 = load volatile ptr, ptr @mi_out_default, align 8, !tbaa !6
  %38 = icmp eq ptr %37, null
  %39 = select i1 %38, ptr @mi_out_buf, ptr %37
  br i1 %.not, label %41, label %40

40:                                               ; preds = %34
  call void %39(ptr noundef nonnull %0, ptr noundef %36) #16
  br label %41

41:                                               ; preds = %40, %34
  call void %39(ptr noundef nonnull %4, ptr noundef %36) #16
  call fastcc void @mi_recurse_exit_prim() #17
  br label %mi_vfprintf.exit12

mi_vfprintf.exit12:                               ; preds = %27, %29, %31, %41
  call void @llvm.lifetime.end.p0(i64 512, ptr nonnull %4) #18
  br label %42

42:                                               ; preds = %mi_vfprintf.exit12, %mi_vfprintf.exit
  ret void
}